target datalayout = "e-m:e-p270:32:32-p271:32:32-p272:64:64-i64:64-i128:128-f80:128-n8:16:32:64-S128"
target triple = "x86_64-pc-linux-gnu"

%"class.cv::Size_" = type { i32, i32 }
%"class.cv::detail::PairwiseSeamFinder" = type { %"class.cv::detail::SeamFinder", %"class.std::vector", %"class.std::vector.15", %"class.std::vector.20", %"class.std::vector" }
%"class.cv::detail::SeamFinder" = type { ptr }
%"class.std::vector.15" = type { %"struct.std::_Vector_base.16" }
%"struct.std::_Vector_base.16" = type { %"struct.std::_Vector_base<cv::Size_<int>, std::allocator<cv::Size_<int>>>::_Vector_impl" }
%"struct.std::_Vector_base<cv::Size_<int>, std::allocator<cv::Size_<int>>>::_Vector_impl" = type { %"struct.std::_Vector_base<cv::Size_<int>, std::allocator<cv::Size_<int>>>::_Vector_impl_data" }
%"struct.std::_Vector_base<cv::Size_<int>, std::allocator<cv::Size_<int>>>::_Vector_impl_data" = type { ptr, ptr, ptr }
%"class.std::vector.20" = type { %"struct.std::_Vector_base.21" }
%"struct.std::_Vector_base.21" = type { %"struct.std::_Vector_base<cv::Point_<int>, std::allocator<cv::Point_<int>>>::_Vector_impl" }
%"struct.std::_Vector_base<cv::Point_<int>, std::allocator<cv::Point_<int>>>::_Vector_impl" = type { %"struct.std::_Vector_base<cv::Point_<int>, std::allocator<cv::Point_<int>>>::_Vector_impl_data" }
%"struct.std::_Vector_base<cv::Point_<int>, std::allocator<cv::Point_<int>>>::_Vector_impl_data" = type { ptr, ptr, ptr }
%"class.std::vector" = type { %"struct.std::_Vector_base" }
%"struct.std::_Vector_base" = type { %"struct.std::_Vector_base<cv::UMat, std::allocator<cv::UMat>>::_Vector_impl" }
%"struct.std::_Vector_base<cv::UMat, std::allocator<cv::UMat>>::_Vector_impl" = type { %"struct.std::_Vector_base<cv::UMat, std::allocator<cv::UMat>>::_Vector_impl_data" }
%"struct.std::_Vector_base<cv::UMat, std::allocator<cv::UMat>>::_Vector_impl_data" = type { ptr, ptr, ptr }
%"class.cv::Point_" = type { i32, i32 }
%"class.cv::Rect_" = type { i32, i32, i32, i32 }

; Function Attrs: mustprogress nounwind uwtable
define linkonce_odr hidden noundef nonnull align 4 dereferenceable(8) ptr @_ZNSt6vectorIN2cv5Size_IiEESaIS2_EEixEm(ptr noundef nonnull align 8 dereferenceable(24) %0, i64 noundef %1) #9 comdat align 2 {
  %3 = alloca ptr, align 8
  %4 = alloca i64, align 8
  store ptr %0, ptr %3, align 8, !tbaa !39
  store i64 %1, ptr %4, align 8, !tbaa !28
  %5 = load ptr, ptr %3, align 8
  %6 = getelementptr inbounds nuw %"struct.std::_Vector_base.16", ptr %5, i32 0, i32 0
  %7 = getelementptr inbounds nuw %"struct.std::_Vector_base<cv::Size_<int>, std::allocator<cv::Size_<int>>>::_Vector_impl_data", ptr %6, i32 0, i32 0
  %8 = load ptr, ptr %7, align 8, !tbaa !41
  %9 = load i64, ptr %4, align 8, !tbaa !28
  %10 = getelementptr inbounds nuw %"class.cv::Size_", ptr %8, i64 %9
  ret ptr %10
}

; Function Attrs: mustprogress nounwind uwtable
define linkonce_odr hidden noundef nonnull align 4 dereferenceable(8) ptr @_ZNSt6vectorIN2cv6Point_IiEESaIS2_EEixEm(ptr noundef nonnull align 8 dereferenceable(24) %0, i64 noundef %1) #9 comdat align 2 {
  %3 = alloca ptr, align 8
  %4 = alloca i64, align 8
  store ptr %0, ptr %3, align 8, !tbaa !26
  store i64 %1, ptr %4, align 8, !tbaa !28
  %5 = load ptr, ptr %3, align 8
  %6 = getelementptr inbounds nuw %"struct.std::_Vector_base.21", ptr %5, i32 0, i32 0
  %7 = getelementptr inbounds nuw %"struct.std::_Vector_base<cv::Point_<int>, std::allocator<cv::Point_<int>>>::_Vector_impl_data", ptr %6, i32 0, i32 0
  %8 = load ptr, ptr %7, align 8, !tbaa !51
  %9 = load i64, ptr %4, align 8, !tbaa !28
  %10 = getelementptr inbounds nuw %"class.cv::Point_", ptr %8, i64 %9
  ret ptr %10
}

; Function Attrs: inlinehint mustprogress nounwind uwtable
define linkonce_odr hidden void @_ZN2cv5Rect_IiEC2Ev(ptr noundef nonnull align 4 dereferenceable(16) %0) unnamed_addr #7 comdat align 2 {
  %2 = alloca ptr, align 8
  store ptr %0, ptr %2, align 8, !tbaa !61
  %3 = load ptr, ptr %2, align 8
  %4 = getelementptr inbounds nuw %"class.cv::Rect_", ptr %3, i32 0, i32 0
  store i32 0, ptr %4, align 4, !tbaa !63
  %5 = getelementptr inbounds nuw %"class.cv::Rect_", ptr %3, i32 0, i32 1
  store i32 0, ptr %5, align 4, !tbaa !65
  %6 = getelementptr inbounds nuw %"class.cv::Rect_", ptr %3, i32 0, i32 2
  store i32 0, ptr %6, align 4, !tbaa !66
  %7 = getelementptr inbounds nuw %"class.cv::Rect_", ptr %3, i32 0, i32 3
  store i32 0, ptr %7, align 4, !tbaa !67
  ret void
}

; Function Attrs: mustprogress nounwind uwtable
define linkonce_odr hidden noundef i64 @_ZNKSt6vectorIN2cv5Size_IiEESaIS2_EE4sizeEv(ptr noundef nonnull align 8 dereferenceable(24) %0) #9 comdat align 2 {
  %2 = alloca ptr, align 8
  store ptr %0, ptr %2, align 8, !tbaa !39
  %3 = load ptr, ptr %2, align 8
  %4 = getelementptr inbounds nuw %"struct.std::_Vector_base.16", ptr %3, i32 0, i32 0
  %5 = getelementptr inbounds nuw %"struct.std::_Vector_base<cv::Size_<int>, std::allocator<cv::Size_<int>>>::_Vector_impl_data", ptr %4, i32 0, i32 1
  %6 = load ptr, ptr %5, align 8, !tbaa !60
  %7 = getelementptr inbounds nuw %"struct.std::_Vector_base.16", ptr %3, i32 0, i32 0
  %8 = getelementptr inbounds nuw %"struct.std::_Vector_base<cv::Size_<int>, std::allocator<cv::Size_<int>>>::_Vector_impl_data", ptr %7, i32 0, i32 0
  %9 = load ptr, ptr %8, align 8, !tbaa !41
  %10 = ptrtoint ptr %6 to i64
  %11 = ptrtoint ptr %9 to i64
  %12 = sub i64 %10, %11
  %13 = sdiv exact i64 %12, 8
  ret i64 %13
}

; Function Attrs: mustprogress uwtable
define void @_ZN2cv6detail18PairwiseSeamFinder3runEv(ptr noundef nonnull align 8 dereferenceable(104) %0) #4 align 2 {
  %2 = alloca ptr, align 8
  %3 = alloca i64, align 8
  %4 = alloca i32, align 4
  %5 = alloca i64, align 8
  %6 = alloca %"class.cv::Rect_", align 4
  %7 = alloca %"class.cv::Point_", align 4
  %8 = alloca %"class.cv::Point_", align 4
  %9 = alloca %"class.cv::Size_", align 4
  %10 = alloca %"class.cv::Size_", align 4
  %11 = alloca %"class.cv::Rect_", align 4
  store ptr %0, ptr %2, align 8, !tbaa !22
  %12 = load ptr, ptr %2, align 8
  call void @llvm.lifetime.start.p0(i64 8, ptr %3) #3
  store i64 0, ptr %3, align 8, !tbaa !28
  br label %13

13:                                               ; preds = %62, %1
  %14 = load i64, ptr %3, align 8, !tbaa !28
  %15 = getelementptr inbounds nuw %"class.cv::detail::PairwiseSeamFinder", ptr %12, i32 0, i32 2
  %16 = call noundef i64 @_ZNKSt6vectorIN2cv5Size_IiEESaIS2_EE4sizeEv(ptr noundef nonnull align 8 dereferenceable(24) %15) #3
  %17 = sub i64 %16, 1
  %18 = icmp ult i64 %14, %17
  br i1 %18, label %20, label %19

19:                                               ; preds = %13
  store i32 2, ptr %4, align 4
  call void @llvm.lifetime.end.p0(i64 8, ptr %3) #3
  br label %65

20:                                               ; preds = %13
  call void @llvm.lifetime.start.p0(i64 8, ptr %5) #3
  %21 = load i64, ptr %3, align 8, !tbaa !28
  %22 = add i64 %21, 1
  store i64 %22, ptr %5, align 8, !tbaa !28
  br label %23

23:                                               ; preds = %58, %20
  %24 = load i64, ptr %5, align 8, !tbaa !28
  %25 = getelementptr inbounds nuw %"class.cv::detail::PairwiseSeamFinder", ptr %12, i32 0, i32 2
  %26 = call noundef i64 @_ZNKSt6vectorIN2cv5Size_IiEESaIS2_EE4sizeEv(ptr noundef nonnull align 8 dereferenceable(24) %25) #3
  %27 = icmp ult i64 %24, %26
  br i1 %27, label %29, label %28

28:                                               ; preds = %23
  store i32 5, ptr %4, align 4
  call void @llvm.lifetime.end.p0(i64 8, ptr %5) #3
  br label %61

29:                                               ; preds = %23
  call void @llvm.lifetime.start.p0(i64 16, ptr %6) #3
  call void @_ZN2cv5Rect_IiEC2Ev(ptr noundef nonnull align 4 dereferenceable(16) %6)
  %30 = getelementptr inbounds nuw %"class.cv::detail::PairwiseSeamFinder", ptr %12, i32 0, i32 3
  %31 = load i64, ptr %3, align 8, !tbaa !28
  %32 = call noundef nonnull align 4 dereferenceable(8) ptr @_ZNSt6vectorIN2cv6Point_IiEESaIS2_EEixEm(ptr noundef nonnull align 8 dereferenceable(24) %30, i64 noundef %31) #3
  call void @llvm.memcpy.p0.p0.i64(ptr align 4 %7, ptr align 4 %32, i64 8, i1 false), !tbaa.struct !30
  %33 = getelementptr inbounds nuw %"class.cv::detail::PairwiseSeamFinder", ptr %12, i32 0, i32 3
  %34 = load i64, ptr %5, align 8, !tbaa !28
  %35 = call noundef nonnull align 4 dereferenceable(8) ptr @_ZNSt6vectorIN2cv6Point_IiEESaIS2_EEixEm(ptr noundef nonnull align 8 dereferenceable(24) %33, i64 noundef %34) #3
  call void @llvm.memcpy.p0.p0.i64(ptr align 4 %8, ptr align 4 %35, i64 8, i1 false), !tbaa.struct !30
  %36 = getelementptr inbounds nuw %"class.cv::detail::PairwiseSeamFinder", ptr %12, i32 0, i32 2
  %37 = load i64, ptr %3, align 8, !tbaa !28
  %38 = call noundef nonnull align 4 dereferenceable(8) ptr @_ZNSt6vectorIN2cv5Size_IiEESaIS2_EEixEm(ptr noundef nonnull align 8 dereferenceable(24) %36, i64 noundef %37) #3
  call void @llvm.memcpy.p0.p0.i64(ptr align 4 %9, ptr align 4 %38, i64 8, i1 false), !tbaa.struct !30
  %39 = getelementptr inbounds nuw %"class.cv::detail::PairwiseSeamFinder", ptr %12, i32 0, i32 2
  %40 = load i64, ptr %5, align 8, !tbaa !28
  %41 = call noundef nonnull align 4 dereferenceable(8) ptr @_ZNSt6vectorIN2cv5Size_IiEESaIS2_EEixEm(ptr noundef nonnull align 8 dereferenceable(24) %39, i64 noundef %40) #3
  call void @llvm.memcpy.p0.p0.i64(ptr align 4 %10, ptr align 4 %41, i64 8, i1 false), !tbaa.struct !30
  %42 = load i64, ptr %7, align 4
  %43 = load i64, ptr %8, align 4
  %44 = load i64, ptr %9, align 4
  %45 = load i64, ptr %10, align 4
  %46 = call noundef zeroext i1 @_ZN2cv6detail10overlapRoiENS_6Point_IiEES2_NS_5Size_IiEES4_RNS_5Rect_IiEE(i64 %42, i64 %43, i64 %44, i64 %45, ptr noundef nonnull align 4 dereferenceable(16) %6)
  br i1 %46, label %47, label %57

47:                                               ; preds = %29
  %48 = load i64, ptr %3, align 8, !tbaa !28
  %49 = load i64, ptr %5, align 8, !tbaa !28
  call void @llvm.memcpy.p0.p0.i64(ptr align 4 %11, ptr align 4 %6, i64 16, i1 false), !tbaa.struct !55
  %50 = getelementptr inbounds nuw { i64, i64 }, ptr %11, i32 0, i32 0
  %51 = load i64, ptr %50, align 4
  %52 = getelementptr inbounds nuw { i64, i64 }, ptr %11, i32 0, i32 1
  %53 = load i64, ptr %52, align 4
  %54 = load ptr, ptr %12, align 8, !tbaa !56
  %55 = getelementptr inbounds ptr, ptr %54, i64 3
  %56 = load ptr, ptr %55, align 8
  call void %56(ptr noundef nonnull align 8 dereferenceable(104) %12, i64 noundef %48, i64 noundef %49, i64 %51, i64 %53)
  br label %57

57:                                               ; preds = %47, %29
  call void @llvm.lifetime.end.p0(i64 16, ptr %6) #3
  br label %58

58:                                               ; preds = %57
  %59 = load i64, ptr %5, align 8, !tbaa !28
  %60 = add i64 %59, 1
  store i64 %60, ptr %5, align 8, !tbaa !28
  br label %23, !llvm.loop !58

61:                                               ; preds = %28
  br label %62

62:                                               ; preds = %61
  %63 = load i64, ptr %3, align 8, !tbaa !28
  %64 = add i64 %63, 1
  store i64 %64, ptr %3, align 8, !tbaa !28
  br label %13, !llvm.loop !59

65:                                               ; preds = %19
  ret void
}