; Function Attrs: mustprogress uwtable
define void @_ZN2cv6detail18PairwiseSeamFinder3runEv(ptr noundef nonnull align 8 dereferenceable(104) %0) local_unnamed_addr #3 align 2 {
  %2 = alloca %"class.cv::Rect_", align 8
  %3 = getelementptr inbounds nuw i8, ptr %0, i64 32
  %4 = getelementptr inbounds nuw i8, ptr %0, i64 40
  %5 = load ptr, ptr %4, align 8, !tbaa !43
  %6 = load ptr, ptr %3, align 8, !tbaa !46
  %7 = ptrtoint ptr %5 to i64
  %8 = ptrtoint ptr %6 to i64
  %9 = sub i64 %7, %8
  %.not = icmp eq i64 %9, 8
  br i1 %.not, label %._crit_edge, label %.lr.ph18

.lr.ph18:                                         ; preds = %1
  %10 = getelementptr inbounds nuw i8, ptr %0, i64 56
  %.sroa.2.0..sroa_idx = getelementptr inbounds nuw i8, ptr %2, i64 8
  br label %15

.loopexit:                                        ; preds = %35, %15
  %.pre-phi21 = phi i64 [ %22, %15 ], [ %42, %35 ]
  %11 = phi ptr [ %16, %15 ], [ %38, %35 ]
  %12 = phi ptr [ %17, %15 ], [ %37, %35 ]
  %13 = add nsw i64 %.pre-phi21, -1
  %14 = icmp ult i64 %18, %13
  br i1 %14, label %15, label %._crit_edge, !llvm.loop !47

._crit_edge:                                      ; preds = %.loopexit, %1
  ret void

15:                                               ; preds = %.lr.ph18, %.loopexit
  %16 = phi ptr [ %6, %.lr.ph18 ], [ %11, %.loopexit ]
  %17 = phi ptr [ %5, %.lr.ph18 ], [ %12, %.loopexit ]
  %.017 = phi i64 [ 0, %.lr.ph18 ], [ %18, %.loopexit ]
  %18 = add nuw i64 %.017, 1
  %19 = ptrtoint ptr %17 to i64
  %20 = ptrtoint ptr %16 to i64
  %21 = sub i64 %19, %20
  %22 = ashr exact i64 %21, 3
  %23 = icmp ult i64 %18, %22
  br i1 %23, label %.lr.ph, label %.loopexit

.lr.ph:                                           ; preds = %15, %35
  %24 = phi ptr [ %38, %35 ], [ %16, %15 ]
  %.01516 = phi i64 [ %36, %35 ], [ %18, %15 ]
  call void @llvm.lifetime.start.p0(i64 16, ptr nonnull %2) #31
  call void @llvm.memset.p0.i64(ptr noundef nonnull align 8 dereferenceable(16) %2, i8 0, i64 16, i1 false)
  %25 = load ptr, ptr %10, align 8, !tbaa !49
  %26 = getelementptr inbounds nuw %"class.cv::Point_", ptr %25, i64 %.017
  %.sroa.04.0.copyload = load i64, ptr %26, align 4
  %27 = getelementptr inbounds nuw %"class.cv::Point_", ptr %25, i64 %.01516
  %.sroa.03.0.copyload = load i64, ptr %27, align 4
  %28 = getelementptr inbounds nuw %"class.cv::Size_", ptr %24, i64 %.017
  %.sroa.02.0.copyload = load i64, ptr %28, align 4
  %29 = getelementptr inbounds nuw %"class.cv::Size_", ptr %24, i64 %.01516
  %.sroa.01.0.copyload = load i64, ptr %29, align 4
  %30 = call noundef zeroext i1 @_ZN2cv6detail10overlapRoiENS_6Point_IiEES2_NS_5Size_IiEES4_RNS_5Rect_IiEE(i64 %.sroa.04.0.copyload, i64 %.sroa.03.0.copyload, i64 %.sroa.02.0.copyload, i64 %.sroa.01.0.copyload, ptr noundef nonnull align 4 dereferenceable(16) %2)
  br i1 %30, label %31, label %35

31:                                               ; preds = %.lr.ph
  %.sroa.0.0.copyload = load i64, ptr %2, align 8
  %.sroa.2.0.copyload = load i64, ptr %.sroa.2.0..sroa_idx, align 8
  %32 = load ptr, ptr %0, align 8, !tbaa !14
  %33 = getelementptr inbounds nuw i8, ptr %32, i64 24
  %34 = load ptr, ptr %33, align 8
  call void %34(ptr noundef nonnull align 8 dereferenceable(104) %0, i64 noundef %.017, i64 noundef %.01516, i64 %.sroa.0.0.copyload, i64 %.sroa.2.0.copyload)
  br label %35

35:                                               ; preds = %31, %.lr.ph
  call void @llvm.lifetime.end.p0(i64 16, ptr nonnull %2) #31
  %36 = add nuw i64 %.01516, 1
  %37 = load ptr, ptr %4, align 8, !tbaa !43
  %38 = load ptr, ptr %3, align 8, !tbaa !46
  %39 = ptrtoint ptr %37 to i64
  %40 = ptrtoint ptr %38 to i64
  %41 = sub i64 %39, %40
  %42 = ashr exact i64 %41, 3
  %43 = icmp ult i64 %36, %42
  br i1 %43, label %.lr.ph, label %.loopexit, !llvm.loop !52
}